; Function Attrs: nounwind uwtable
define internal void @paramspecattr_dealloc(ptr noundef %0) #0 {
  %2 = getelementptr i8, ptr %0, i64 8
  %.val7 = load ptr, ptr %2, align 8, !tbaa !18
  %3 = getelementptr i8, ptr %0, i64 -16
  %4 = getelementptr i8, ptr %0, i64 -8
  %.val.i = load i64, ptr %4, align 8, !tbaa !113
  %5 = and i64 %.val.i, -4
  %6 = inttoptr i64 %5 to ptr
  %.val9.i = load i64, ptr %3, align 8, !tbaa !114
  %7 = and i64 %.val9.i, -4
  %8 = inttoptr i64 %7 to ptr
  %9 = load i64, ptr %6, align 8, !tbaa !114
  %10 = and i64 %9, 3
  %11 = or disjoint i64 %10, %7
  store i64 %11, ptr %6, align 8, !tbaa !114
  %12 = getelementptr inbounds nuw i8, ptr %8, i64 8
  %13 = load i64, ptr %12, align 8, !tbaa !113
  %14 = and i64 %13, 3
  %15 = or disjoint i64 %14, %5
  store i64 %15, ptr %12, align 8, !tbaa !113
  store i64 0, ptr %3, align 8, !tbaa !114
  %16 = load i64, ptr %4, align 8, !tbaa !113
  %17 = and i64 %16, 1
  store i64 %17, ptr %4, align 8, !tbaa !113
  %18 = getelementptr inbounds nuw i8, ptr %0, i64 16
  %19 = load ptr, ptr %18, align 8, !tbaa !151
  %.not.i8 = icmp eq ptr %19, null
  br i1 %.not.i8, label %Py_XDECREF.exit, label %20

20:                                               ; preds = %1
  %21 = load i32, ptr %19, align 8, !tbaa !27
  %.not.i.i = icmp sgt i32 %21, -1
  br i1 %.not.i.i, label %22, label %Py_XDECREF.exit

22:                                               ; preds = %20
  %23 = add nsw i32 %21, -1
  store i32 %23, ptr %19, align 8, !tbaa !27
  %24 = icmp eq i32 %23, 0
  br i1 %24, label %25, label %Py_XDECREF.exit

25:                                               ; preds = %22
  tail call void @_Py_Dealloc(ptr noundef nonnull %19) #8
  br label %Py_XDECREF.exit

Py_XDECREF.exit:                                  ; preds = %1, %20, %22, %25
  %.val = load ptr, ptr %2, align 8, !tbaa !18
  %26 = getelementptr inbounds nuw i8, ptr %.val, i64 320
  %27 = load ptr, ptr %26, align 8, !tbaa !116
  tail call void %27(ptr noundef nonnull %0) #8
  %28 = load i32, ptr %.val7, align 8, !tbaa !27
  %.not.i = icmp sgt i32 %28, -1
  br i1 %.not.i, label %29, label %Py_DECREF.exit

29:                                               ; preds = %Py_XDECREF.exit
  %30 = add nsw i32 %28, -1
  store i32 %30, ptr %.val7, align 8, !tbaa !27
  %31 = icmp eq i32 %30, 0
  br i1 %31, label %32, label %Py_DECREF.exit

32:                                               ; preds = %29
  tail call void @_Py_Dealloc(ptr noundef nonnull %.val7) #8
  br label %Py_DECREF.exit

Py_DECREF.exit:                                   ; preds = %Py_XDECREF.exit, %29, %32
  ret void
}